; Function Attrs: nounwind sspstrong uwtable
define internal i64 @lazy_drop_while(i64 noundef %0) #0 {
  %2 = tail call i32 @rb_block_given_p() #18
  %.not = icmp eq i32 %2, 0
  br i1 %.not, label %3, label %5

3:                                                ; preds = %1
  %4 = load i64, ptr @rb_eArgError, align 8, !tbaa !7
  tail call void (i64, ptr, ...) @rb_raise(i64 noundef %4, ptr noundef nonnull @.str.134) #19
  unreachable

5:                                                ; preds = %1
  %6 = tail call fastcc i64 @lazy_add_method(i64 noundef %0, i32 noundef 0, ptr noundef null, i64 noundef 0, i64 noundef 4, ptr noundef nonnull @lazy_drop_while_funcs)
  ret i64 %6
}